; Function Attrs: nounwind uwtable
define range(i32 0, 2) i32 @test_BN_odd(ptr noundef %0, i32 noundef %1, ptr noundef %2, ptr noundef %3) local_unnamed_addr #0 {
  %.not = icmp eq ptr %3, null
  br i1 %.not, label %7, label %5

5:                                                ; preds = %4
  %6 = tail call i32 @BN_is_odd(ptr noundef nonnull %3) #8
  %.not7 = icmp eq i32 %6, 0
  br i1 %.not7, label %7, label %8

7:                                                ; preds = %5, %4
  tail call void @test_fail_bignum_mono_message(ptr noundef null, ptr noundef %0, i32 noundef %1, ptr noundef nonnull @.str.46, ptr noundef nonnull @.str.49, ptr noundef nonnull @.str.50, ptr noundef %2, ptr noundef %3) #8
  br label %8

8:                                                ; preds = %5, %7
  %.0 = phi i32 [ 0, %7 ], [ 1, %5 ]
  ret i32 %.0
}